; Function Attrs: nounwind uwtable
define internal ptr @reversed_reduce(ptr noundef readonly captures(none) %0, ptr readnone captures(none) %1) #0 {
  %3 = getelementptr inbounds nuw i8, ptr %0, i64 24
  %4 = load ptr, ptr %3, align 8, !tbaa !117
  %.not = icmp eq ptr %4, null
  %5 = getelementptr i8, ptr %0, i64 8
  %.val = load ptr, ptr %5, align 8, !tbaa !16
  br i1 %.not, label %10, label %6

6:                                                ; preds = %2
  %7 = getelementptr inbounds nuw i8, ptr %0, i64 16
  %8 = load i64, ptr %7, align 8, !tbaa !119
  %9 = tail call ptr (ptr, ...) @Py_BuildValue(ptr noundef nonnull @.str.16, ptr noundef %.val, ptr noundef nonnull %4, i64 noundef %8) #4
  br label %12

10:                                               ; preds = %2
  %11 = tail call ptr (ptr, ...) @Py_BuildValue(ptr noundef nonnull @.str.17, ptr noundef %.val) #4
  br label %12

12:                                               ; preds = %10, %6
  %.0 = phi ptr [ %9, %6 ], [ %11, %10 ]
  ret ptr %.0
}